target datalayout = "e-m:e-p270:32:32-p271:32:32-p272:64:64-i64:64-i128:128-f80:128-n8:16:32:64-S128"
target triple = "x86_64-unknown-linux-gnu"

%struct.typeInterface = type { ptr, ptr, ptr, ptr, ptr }
%struct.standardConfig = type { ptr, ptr, i32, %struct.typeInterface, %union.typeData, i32, ptr }
%union.typeData = type { %struct.numericConfigData }
%struct.numericConfigData = type { %union.anon, i32, i32, i64, i64, i64, ptr }
%union.anon = type { ptr }

@configs = dso_local global ptr null, align 8

; Function Attrs: nounwind uwtable
define dso_local i32 @registerConfigValue(ptr noundef %name, ptr noundef %config, i32 noundef %alias) #0 {
entry:
  %name.addr = alloca ptr, align 8
  %config.addr = alloca ptr, align 8
  %alias.addr = alloca i32, align 4
  %new = alloca ptr, align 8
  store ptr %name, ptr %name.addr, align 8
  store ptr %config, ptr %config.addr, align 8
  store i32 %alias, ptr %alias.addr, align 4
  %call = call noalias ptr @zmalloc(i64 noundef 128) #13
  store ptr %call, ptr %new, align 8
  %0 = load ptr, ptr %new, align 8
  %1 = load ptr, ptr %config.addr, align 8
  call void @llvm.memcpy.p0.p0.i64(ptr align 8 %0, ptr align 8 %1, i64 128, i1 false)
  %2 = load i32, ptr %alias.addr, align 4
  %tobool = icmp ne i32 %2, 0
  br i1 %tobool, label %if.then, label %if.end

if.then:                                          ; preds = %entry
  %3 = load ptr, ptr %new, align 8
  %flags = getelementptr inbounds %struct.standardConfig, ptr %3, i32 0, i32 2
  %4 = load i32, ptr %flags, align 8
  %conv = zext i32 %4 to i64
  %or = or i64 %conv, 128
  %conv1 = trunc i64 %or to i32
  store i32 %conv1, ptr %flags, align 8
  %5 = load ptr, ptr %config.addr, align 8
  %alias2 = getelementptr inbounds %struct.standardConfig, ptr %5, i32 0, i32 1
  %6 = load ptr, ptr %alias2, align 8
  %7 = load ptr, ptr %new, align 8
  %name3 = getelementptr inbounds %struct.standardConfig, ptr %7, i32 0, i32 0
  store ptr %6, ptr %name3, align 8
  %8 = load ptr, ptr %config.addr, align 8
  %name4 = getelementptr inbounds %struct.standardConfig, ptr %8, i32 0, i32 0
  %9 = load ptr, ptr %name4, align 8
  %10 = load ptr, ptr %new, align 8
  %alias5 = getelementptr inbounds %struct.standardConfig, ptr %10, i32 0, i32 1
  store ptr %9, ptr %alias5, align 8
  br label %if.end

if.end:                                           ; preds = %if.then, %entry
  %11 = load ptr, ptr @configs, align 8
  %12 = load ptr, ptr %name.addr, align 8
  %call6 = call ptr @sdsnew(ptr noundef %12)
  %13 = load ptr, ptr %new, align 8
  %call7 = call i32 @dictAdd(ptr noundef %11, ptr noundef %call6, ptr noundef %13)
  %cmp = icmp eq i32 %call7, 0
  %conv8 = zext i1 %cmp to i32
  ret i32 %conv8
}