; Function Attrs: nounwind uwtable
define dso_local i32 @registerConfigValue(ptr noundef %name, ptr nocapture noundef readonly %config, i32 noundef %alias) local_unnamed_addr #2 {
entry:
  %call = tail call noalias dereferenceable_or_null(128) ptr @zmalloc(i64 noundef 128) #27
  tail call void @llvm.memcpy.p0.p0.i64(ptr noundef nonnull align 8 dereferenceable(128) %call, ptr noundef nonnull align 8 dereferenceable(128) %config, i64 128, i1 false)
  %tobool.not = icmp eq i32 %alias, 0
  br i1 %tobool.not, label %if.end, label %if.then

if.then:                                          ; preds = %entry
  %flags = getelementptr inbounds i8, ptr %call, i64 16
  %0 = load i32, ptr %flags, align 8
  %1 = or i32 %0, 128
  store i32 %1, ptr %flags, align 8
  %2 = load <2 x ptr>, ptr %config, align 8
  %3 = shufflevector <2 x ptr> %2, <2 x ptr> poison, <2 x i32> <i32 1, i32 0>
  store <2 x ptr> %3, ptr %call, align 8
  br label %if.end

if.end:                                           ; preds = %if.then, %entry
  %4 = load ptr, ptr @configs, align 8
  %call6 = tail call ptr @sdsnew(ptr noundef %name) #24
  %call7 = tail call i32 @dictAdd(ptr noundef %4, ptr noundef %call6, ptr noundef nonnull %call) #24
  %cmp = icmp eq i32 %call7, 0
  %conv8 = zext i1 %cmp to i32
  ret i32 %conv8
}